target datalayout = "e-m:e-p270:32:32-p271:32:32-p272:64:64-i64:64-i128:128-f80:128-n8:16:32:64-S128"
target triple = "x86_64-pc-linux-gnu"

%"struct.boost::iostreams::detail::file_descriptor_impl" = type { i32, i32 }
%"class.std::ios_base::failure" = type { %"class.std::system_error" }
%"class.std::system_error" = type { %"class.std::runtime_error", %"class.std::error_code" }
%"class.std::runtime_error" = type { %"class.std::exception", %"struct.std::__cow_string" }
%"class.std::exception" = type { ptr }
%"struct.std::__cow_string" = type { %union.anon }
%union.anon = type { ptr }
%"class.std::error_code" = type { i32, ptr }
%"class.boost::iostreams::file_descriptor" = type { %"class.boost::shared_ptr" }
%"class.boost::shared_ptr" = type { ptr, %"class.boost::detail::shared_count" }
%"class.boost::detail::shared_count" = type { ptr }

@.str.4 = private unnamed_addr constant [15 x i8] c"failed writing\00", align 1

; Function Attrs: inlinehint mustprogress uwtable
define linkonce_odr hidden void @_ZN5boost9iostreams6detail20throw_system_failureEPKc(ptr noundef %0) #8 comdat personality ptr @__gxx_personality_v0 {
  %2 = alloca ptr, align 8
  %3 = alloca %"class.std::ios_base::failure", align 8
  %4 = alloca ptr, align 8
  %5 = alloca i32, align 4
  store ptr %0, ptr %2, align 8, !tbaa !3
  call void @llvm.lifetime.start.p0(i64 32, ptr %3) #20
  %6 = load ptr, ptr %2, align 8, !tbaa !3
  call void @_ZN5boost9iostreams6detail14system_failureB5cxx11EPKc(ptr dead_on_unwind writable sret(%"class.std::ios_base::failure") align 8 %3, ptr noundef %6)
  invoke void @_ZN5boost15throw_exceptionINSt8ios_base7failureB5cxx11EEEvRKT_(ptr noundef nonnull align 8 dereferenceable(32) %3) #21
          to label %7 unwind label %8

7:                                                ; preds = %1
  unreachable

8:                                                ; preds = %1
  %9 = landingpad { ptr, i32 }
          cleanup
  %10 = extractvalue { ptr, i32 } %9, 0
  store ptr %10, ptr %4, align 8
  %11 = extractvalue { ptr, i32 } %9, 1
  store i32 %11, ptr %5, align 4
  call void @_ZNSt8ios_base7failureB5cxx11D1Ev(ptr noundef nonnull align 8 dereferenceable(32) %3) #20
  call void @llvm.lifetime.end.p0(i64 32, ptr %3) #20
  br label %12

12:                                               ; preds = %8
  %13 = load ptr, ptr %4, align 8
  %14 = load i32, ptr %5, align 4
  %15 = insertvalue { ptr, i32 } poison, ptr %13, 0
  %16 = insertvalue { ptr, i32 } %15, i32 %14, 1
  resume { ptr, i32 } %16
}

; Function Attrs: mustprogress uwtable
define hidden noundef i64 @_ZN5boost9iostreams6detail20file_descriptor_impl5writeEPKcl(ptr noundef nonnull align 4 dereferenceable(8) %0, ptr noundef %1, i64 noundef %2) #0 align 2 {
  %4 = alloca ptr, align 8
  %5 = alloca ptr, align 8
  %6 = alloca i64, align 8
  %7 = alloca i32, align 4
  store ptr %0, ptr %4, align 8, !tbaa !3
  store ptr %1, ptr %5, align 8, !tbaa !3
  store i64 %2, ptr %6, align 8, !tbaa !23
  %8 = load ptr, ptr %4, align 8
  call void @llvm.lifetime.start.p0(i64 4, ptr %7) #20
  %9 = getelementptr inbounds nuw %"struct.boost::iostreams::detail::file_descriptor_impl", ptr %8, i32 0, i32 0
  %10 = load i32, ptr %9, align 4, !tbaa !7
  %11 = load ptr, ptr %5, align 8, !tbaa !3
  %12 = load i64, ptr %6, align 8, !tbaa !23
  %13 = call i64 @write(i32 noundef %10, ptr noundef %11, i64 noundef %12)
  %14 = trunc i64 %13 to i32
  store i32 %14, ptr %7, align 4, !tbaa !15
  %15 = load i32, ptr %7, align 4, !tbaa !15
  %16 = sext i32 %15 to i64
  %17 = load i64, ptr %6, align 8, !tbaa !23
  %18 = icmp slt i64 %16, %17
  br i1 %18, label %19, label %20

19:                                               ; preds = %3
  call void @_ZN5boost9iostreams6detail20throw_system_failureEPKc(ptr noundef @.str.4)
  br label %20

20:                                               ; preds = %19, %3
  %21 = load i64, ptr %6, align 8, !tbaa !23
  call void @llvm.lifetime.end.p0(i64 4, ptr %7) #20
  ret i64 %21
}

; Function Attrs: mustprogress nounwind uwtable
define linkonce_odr hidden noundef ptr @_ZNK5boost10shared_ptrINS_9iostreams6detail20file_descriptor_implEEptEv(ptr noundef nonnull align 8 dereferenceable(16) %0) #1 comdat align 2 {
  %2 = alloca ptr, align 8
  store ptr %0, ptr %2, align 8, !tbaa !3
  %3 = load ptr, ptr %2, align 8
  %4 = getelementptr inbounds nuw %"class.boost::shared_ptr", ptr %3, i32 0, i32 0
  %5 = load ptr, ptr %4, align 8, !tbaa !27
  ret ptr %5
}

; Function Attrs: mustprogress uwtable
define noundef i64 @_ZN5boost9iostreams15file_descriptor5writeEPKcl(ptr noundef nonnull align 8 dereferenceable(16) %0, ptr noundef %1, i64 noundef %2) #0 align 2 {
  %4 = alloca ptr, align 8
  %5 = alloca ptr, align 8
  %6 = alloca i64, align 8
  store ptr %0, ptr %4, align 8, !tbaa !3
  store ptr %1, ptr %5, align 8, !tbaa !3
  store i64 %2, ptr %6, align 8, !tbaa !23
  %7 = load ptr, ptr %4, align 8
  %8 = getelementptr inbounds nuw %"class.boost::iostreams::file_descriptor", ptr %7, i32 0, i32 0
  %9 = call noundef ptr @_ZNK5boost10shared_ptrINS_9iostreams6detail20file_descriptor_implEEptEv(ptr noundef nonnull align 8 dereferenceable(16) %8) #20
  %10 = load ptr, ptr %5, align 8, !tbaa !3
  %11 = load i64, ptr %6, align 8, !tbaa !23
  %12 = call noundef i64 @_ZN5boost9iostreams6detail20file_descriptor_impl5writeEPKcl(ptr noundef nonnull align 4 dereferenceable(8) %9, ptr noundef %10, i64 noundef %11)
  ret i64 %12
}